target datalayout = "e-m:e-p270:32:32-p271:32:32-p272:64:64-i64:64-i128:128-f80:128-n8:16:32:64-S128"
target triple = "x86_64-pc-linux-gnu"

%struct.sockaddr_storage = type { i16, [118 x i8], i64 }
%struct.sockaddr_in = type { i16, i16, %struct.in_addr, [8 x i8] }
%struct.in_addr = type { i32 }
%struct.sockaddr_in6 = type { i16, i16, i32, %struct.in6_addr, i32 }
%struct.in6_addr = type { %union.anon }
%union.anon = type { [4 x i32] }

; Function Attrs: nounwind uwtable
define dso_local i32 @pg_sockaddr_cidr_mask(ptr noundef %0, ptr noundef %1, i32 noundef %2) #0 {
  %4 = alloca i32, align 4
  %5 = alloca ptr, align 8
  %6 = alloca ptr, align 8
  %7 = alloca i32, align 4
  %8 = alloca i64, align 8
  %9 = alloca ptr, align 8
  %10 = alloca i32, align 4
  %11 = alloca %struct.sockaddr_in, align 4
  %12 = alloca i64, align 8
  %13 = alloca %struct.sockaddr_in6, align 4
  %14 = alloca i32, align 4
  store ptr %0, ptr %5, align 8
  store ptr %1, ptr %6, align 8
  store i32 %2, ptr %7, align 4
  call void @llvm.lifetime.start.p0(i64 8, ptr %8) #6
  call void @llvm.lifetime.start.p0(i64 8, ptr %9) #6
  %15 = load ptr, ptr %6, align 8
  %16 = icmp eq ptr %15, null
  br i1 %16, label %17, label %22

17:                                               ; preds = %3
  %18 = load i32, ptr %7, align 4
  %19 = icmp eq i32 %18, 2
  %20 = select i1 %19, i32 32, i32 128
  %21 = sext i32 %20 to i64
  store i64 %21, ptr %8, align 8
  br label %36

22:                                               ; preds = %3
  %23 = load ptr, ptr %6, align 8
  %24 = call i64 @strtol(ptr noundef %23, ptr noundef %9, i32 noundef 10) #6
  store i64 %24, ptr %8, align 8
  %25 = load ptr, ptr %6, align 8
  %26 = load i8, ptr %25, align 1
  %27 = sext i8 %26 to i32
  %28 = icmp eq i32 %27, 0
  br i1 %28, label %34, label %29

29:                                               ; preds = %22
  %30 = load ptr, ptr %9, align 8
  %31 = load i8, ptr %30, align 1
  %32 = sext i8 %31 to i32
  %33 = icmp ne i32 %32, 0
  br i1 %33, label %34, label %35

34:                                               ; preds = %29, %22
  store i32 -1, ptr %4, align 4
  store i32 1, ptr %10, align 4
  br label %123

35:                                               ; preds = %29
  br label %36

36:                                               ; preds = %35, %17
  %37 = load i32, ptr %7, align 4
  switch i32 %37, label %117 [
    i32 2, label %38
    i32 10, label %65
  ]

38:                                               ; preds = %36
  call void @llvm.lifetime.start.p0(i64 16, ptr %11) #6
  call void @llvm.lifetime.start.p0(i64 8, ptr %12) #6
  %39 = load i64, ptr %8, align 8
  %40 = icmp slt i64 %39, 0
  br i1 %40, label %44, label %41

41:                                               ; preds = %38
  %42 = load i64, ptr %8, align 8
  %43 = icmp sgt i64 %42, 32
  br i1 %43, label %44, label %45

44:                                               ; preds = %41, %38
  store i32 -1, ptr %4, align 4
  store i32 1, ptr %10, align 4
  br label %63

45:                                               ; preds = %41
  call void @llvm.memset.p0.i64(ptr align 4 %11, i8 0, i64 16, i1 false)
  %46 = load i64, ptr %8, align 8
  %47 = icmp sgt i64 %46, 0
  br i1 %47, label %48, label %55

48:                                               ; preds = %45
  %49 = load i64, ptr %8, align 8
  %50 = trunc i64 %49 to i32
  %51 = sub i32 32, %50
  %52 = zext i32 %51 to i64
  %53 = shl i64 4294967295, %52
  %54 = and i64 %53, 4294967295
  store i64 %54, ptr %12, align 8
  br label %56

55:                                               ; preds = %45
  store i64 0, ptr %12, align 8
  br label %56

56:                                               ; preds = %55, %48
  %57 = load i64, ptr %12, align 8
  %58 = trunc i64 %57 to i32
  %59 = call i32 @llvm.bswap.i32(i32 %58)
  %60 = getelementptr inbounds nuw %struct.sockaddr_in, ptr %11, i32 0, i32 2
  %61 = getelementptr inbounds nuw %struct.in_addr, ptr %60, i32 0, i32 0
  store i32 %59, ptr %61, align 4
  %62 = load ptr, ptr %5, align 8
  call void @llvm.memcpy.p0.p0.i64(ptr align 8 %62, ptr align 4 %11, i64 16, i1 false)
  store i32 2, ptr %10, align 4
  br label %63

63:                                               ; preds = %56, %44
  call void @llvm.lifetime.end.p0(i64 8, ptr %12) #6
  call void @llvm.lifetime.end.p0(i64 16, ptr %11) #6
  %64 = load i32, ptr %10, align 4
  switch i32 %64, label %123 [
    i32 2, label %118
  ]

65:                                               ; preds = %36
  call void @llvm.lifetime.start.p0(i64 28, ptr %13) #6
  call void @llvm.lifetime.start.p0(i64 4, ptr %14) #6
  %66 = load i64, ptr %8, align 8
  %67 = icmp slt i64 %66, 0
  br i1 %67, label %71, label %68

68:                                               ; preds = %65
  %69 = load i64, ptr %8, align 8
  %70 = icmp sgt i64 %69, 128
  br i1 %70, label %71, label %72

71:                                               ; preds = %68, %65
  store i32 -1, ptr %4, align 4
  store i32 1, ptr %10, align 4
  br label %115

72:                                               ; preds = %68
  call void @llvm.memset.p0.i64(ptr align 4 %13, i8 0, i64 28, i1 false)
  store i32 0, ptr %14, align 4
  br label %73

73:                                               ; preds = %110, %72
  %74 = load i32, ptr %14, align 4
  %75 = icmp slt i32 %74, 16
  br i1 %75, label %76, label %113

76:                                               ; preds = %73
  %77 = load i64, ptr %8, align 8
  %78 = icmp sle i64 %77, 0
  br i1 %78, label %79, label %85

79:                                               ; preds = %76
  %80 = getelementptr inbounds nuw %struct.sockaddr_in6, ptr %13, i32 0, i32 3
  %81 = getelementptr inbounds nuw %struct.in6_addr, ptr %80, i32 0, i32 0
  %82 = load i32, ptr %14, align 4
  %83 = sext i32 %82 to i64
  %84 = getelementptr inbounds [16 x i8], ptr %81, i64 0, i64 %83
  store i8 0, ptr %84, align 1
  br label %107

85:                                               ; preds = %76
  %86 = load i64, ptr %8, align 8
  %87 = icmp sge i64 %86, 8
  br i1 %87, label %88, label %94

88:                                               ; preds = %85
  %89 = getelementptr inbounds nuw %struct.sockaddr_in6, ptr %13, i32 0, i32 3
  %90 = getelementptr inbounds nuw %struct.in6_addr, ptr %89, i32 0, i32 0
  %91 = load i32, ptr %14, align 4
  %92 = sext i32 %91 to i64
  %93 = getelementptr inbounds [16 x i8], ptr %90, i64 0, i64 %92
  store i8 -1, ptr %93, align 1
  br label %106

94:                                               ; preds = %85
  %95 = load i64, ptr %8, align 8
  %96 = trunc i64 %95 to i32
  %97 = sub i32 8, %96
  %98 = shl i32 255, %97
  %99 = and i32 %98, 255
  %100 = trunc i32 %99 to i8
  %101 = getelementptr inbounds nuw %struct.sockaddr_in6, ptr %13, i32 0, i32 3
  %102 = getelementptr inbounds nuw %struct.in6_addr, ptr %101, i32 0, i32 0
  %103 = load i32, ptr %14, align 4
  %104 = sext i32 %103 to i64
  %105 = getelementptr inbounds [16 x i8], ptr %102, i64 0, i64 %104
  store i8 %100, ptr %105, align 1
  br label %106

106:                                              ; preds = %94, %88
  br label %107

107:                                              ; preds = %106, %79
  %108 = load i64, ptr %8, align 8
  %109 = sub i64 %108, 8
  store i64 %109, ptr %8, align 8
  br label %110

110:                                              ; preds = %107
  %111 = load i32, ptr %14, align 4
  %112 = add i32 %111, 1
  store i32 %112, ptr %14, align 4
  br label %73, !llvm.loop !6

113:                                              ; preds = %73
  %114 = load ptr, ptr %5, align 8
  call void @llvm.memcpy.p0.p0.i64(ptr align 8 %114, ptr align 4 %13, i64 28, i1 false)
  store i32 2, ptr %10, align 4
  br label %115

115:                                              ; preds = %113, %71
  call void @llvm.lifetime.end.p0(i64 4, ptr %14) #6
  call void @llvm.lifetime.end.p0(i64 28, ptr %13) #6
  %116 = load i32, ptr %10, align 4
  switch i32 %116, label %123 [
    i32 2, label %118
  ]

117:                                              ; preds = %36
  store i32 -1, ptr %4, align 4
  store i32 1, ptr %10, align 4
  br label %123

118:                                              ; preds = %115, %63
  %119 = load i32, ptr %7, align 4
  %120 = trunc i32 %119 to i16
  %121 = load ptr, ptr %5, align 8
  %122 = getelementptr inbounds nuw %struct.sockaddr_storage, ptr %121, i32 0, i32 0
  store i16 %120, ptr %122, align 8
  store i32 0, ptr %4, align 4
  store i32 1, ptr %10, align 4
  br label %123

123:                                              ; preds = %118, %117, %115, %63, %34
  call void @llvm.lifetime.end.p0(i64 8, ptr %9) #6
  call void @llvm.lifetime.end.p0(i64 8, ptr %8) #6
  %124 = load i32, ptr %4, align 4
  ret i32 %124
}