; Function Attrs: nofree nounwind uwtable
define dso_local range(i32 -1, 1) i32 @pg_sockaddr_cidr_mask(ptr noundef writeonly captures(none) %0, ptr noundef %1, i32 noundef %2) local_unnamed_addr #1 {
  %4 = alloca ptr, align 8
  %5 = alloca %struct.sockaddr_in6, align 4
  call void @llvm.lifetime.start.p0(i64 8, ptr nonnull %4) #9
  %6 = icmp eq ptr %1, null
  br i1 %6, label %7, label %10

7:                                                ; preds = %3
  %8 = icmp eq i32 %2, 2
  %9 = select i1 %8, i64 32, i64 128
  br label %17

10:                                               ; preds = %3
  %11 = call i64 @strtol(ptr noundef nonnull %1, ptr noundef nonnull %4, i32 noundef 10) #9
  %12 = load i8, ptr %1, align 1
  %13 = icmp eq i8 %12, 0
  br i1 %13, label %.critedge, label %14

14:                                               ; preds = %10
  %15 = load ptr, ptr %4, align 8
  %16 = load i8, ptr %15, align 1
  %.not = icmp eq i8 %16, 0
  br i1 %.not, label %17, label %.critedge

17:                                               ; preds = %14, %7
  %.035 = phi i64 [ %9, %7 ], [ %11, %14 ]
  switch i32 %2, label %.critedge [
    i32 2, label %18
    i32 10, label %25
  ]

18:                                               ; preds = %17
  %or.cond = icmp ult i64 %.035, 33
  br i1 %or.cond, label %19, label %.critedge

19:                                               ; preds = %18
  %.not38 = icmp eq i64 %.035, 0
  %20 = sub nuw nsw i64 32, %.035
  %21 = shl nuw nsw i64 4294967295, %20
  %22 = trunc i64 %21 to i32
  %23 = tail call i32 @llvm.bswap.i32(i32 %22)
  %24 = select i1 %.not38, i32 0, i32 %23
  store i32 0, ptr %0, align 8
  %.sroa.4.0..sroa_idx = getelementptr inbounds nuw i8, ptr %0, i64 4
  store i32 %24, ptr %.sroa.4.0..sroa_idx, align 4
  %.sroa.5.0..sroa_idx = getelementptr inbounds nuw i8, ptr %0, i64 8
  store i64 0, ptr %.sroa.5.0..sroa_idx, align 8
  br label %41

25:                                               ; preds = %17
  call void @llvm.lifetime.start.p0(i64 28, ptr nonnull %5) #9
  %or.cond4 = icmp ult i64 %.035, 129
  br i1 %or.cond4, label %26, label %.critedge40

26:                                               ; preds = %25
  call void @llvm.memset.p0.i64(ptr noundef nonnull align 4 dereferenceable(28) %5, i8 0, i64 28, i1 false)
  %27 = getelementptr inbounds nuw i8, ptr %5, i64 8
  br label %28

28:                                               ; preds = %26, %37
  %indvars.iv = phi i64 [ 0, %26 ], [ %indvars.iv.next, %37 ]
  %.13641 = phi i64 [ %.035, %26 ], [ %39, %37 ]
  %29 = icmp slt i64 %.13641, 1
  br i1 %29, label %37, label %30

30:                                               ; preds = %28
  %31 = icmp samesign ugt i64 %.13641, 7
  br i1 %31, label %37, label %32

32:                                               ; preds = %30
  %33 = trunc nuw i64 %.13641 to i16
  %34 = sub nuw nsw i16 8, %33
  %35 = shl nuw nsw i16 255, %34
  %36 = trunc i16 %35 to i8
  br label %37

37:                                               ; preds = %30, %28, %32
  %.sink = phi i8 [ %36, %32 ], [ 0, %28 ], [ -1, %30 ]
  %38 = getelementptr inbounds nuw [16 x i8], ptr %27, i64 0, i64 %indvars.iv
  store i8 %.sink, ptr %38, align 1
  %39 = add i64 %.13641, -8
  %indvars.iv.next = add nuw nsw i64 %indvars.iv, 1
  %exitcond.not = icmp eq i64 %indvars.iv.next, 16
  br i1 %exitcond.not, label %40, label %28, !llvm.loop !6

40:                                               ; preds = %37
  call void @llvm.memcpy.p0.p0.i64(ptr noundef nonnull align 8 dereferenceable(28) %0, ptr noundef nonnull align 4 dereferenceable(28) %5, i64 28, i1 false)
  call void @llvm.lifetime.end.p0(i64 28, ptr nonnull %5) #9
  br label %41

41:                                               ; preds = %40, %19
  %42 = trunc i32 %2 to i16
  store i16 %42, ptr %0, align 8
  br label %.critedge

.critedge40:                                      ; preds = %25
  call void @llvm.lifetime.end.p0(i64 28, ptr nonnull %5) #9
  br label %.critedge

.critedge:                                        ; preds = %18, %17, %.critedge40, %10, %14, %41
  %.032 = phi i32 [ 0, %41 ], [ -1, %14 ], [ -1, %10 ], [ -1, %.critedge40 ], [ -1, %17 ], [ -1, %18 ]
  call void @llvm.lifetime.end.p0(i64 8, ptr nonnull %4) #9
  ret i32 %.032
}